; Function Attrs: mustprogress null_pointer_is_valid sspstrong uwtable
define void @_ZN15RtpPlayerDialog21handleGoToSetupPacketEP15QTreeWidgetItem(ptr noundef align 8 dereferenceable_or_null(472) %0, ptr noundef %1) local_unnamed_addr #0 align 2 personality ptr @__gxx_personality_v0 {
  %3 = alloca i8, align 1
  %4 = alloca %class.QVariant, align 8
  %.not = icmp eq ptr %1, null
  br i1 %.not, label %17, label %5

5:                                                ; preds = %2
  call void @llvm.lifetime.start.p0(i64 1, ptr nonnull %3) #26
  call void @llvm.lifetime.start.p0(i64 32, ptr nonnull %4) #26
  %6 = load ptr, ptr %1, align 8
  %7 = getelementptr inbounds nuw i8, ptr %6, i64 24
  %8 = load ptr, ptr %7, align 8
  call void %8(ptr dead_on_unwind nonnull writable sret(%class.QVariant) align 8 %4, ptr noundef nonnull align 8 dereferenceable_or_null(92) %1, i32 noundef 6, i32 noundef 256)
  %9 = invoke noundef i32 @_ZNK8QVariant5toIntEPb(ptr noundef nonnull align 8 dereferenceable_or_null(32) %4, ptr noundef nonnull %3)
          to label %10 unwind label %14

10:                                               ; preds = %5
  call void @_ZN8QVariantD1Ev(ptr noundef nonnull align 8 dereferenceable_or_null(32) %4) #26
  call void @llvm.lifetime.end.p0(i64 32, ptr nonnull %4) #26
  %11 = load i8, ptr %3, align 1, !range !47, !noundef !48
  %12 = trunc nuw i8 %11 to i1
  br i1 %12, label %13, label %16

13:                                               ; preds = %10
  call void @_ZN15RtpPlayerDialog10goToPacketEi(ptr noundef align 8 dereferenceable_or_null(472) %0, i32 noundef %9)
  br label %16

14:                                               ; preds = %5
  %15 = landingpad { ptr, i32 }
          cleanup
  call void @_ZN8QVariantD1Ev(ptr noundef nonnull align 8 dereferenceable_or_null(32) %4) #26
  call void @llvm.lifetime.end.p0(i64 32, ptr nonnull %4) #26
  call void @llvm.lifetime.end.p0(i64 1, ptr nonnull %3) #26
  resume { ptr, i32 } %15

16:                                               ; preds = %13, %10
  call void @llvm.lifetime.end.p0(i64 1, ptr nonnull %3) #26
  br label %17

17:                                               ; preds = %16, %2
  ret void
}